
leds_elf:     file format elf32-littlearm

Disassembly of section .text:

00000000 <_start>:
   0:	e3a0da01 	mov	sp, #4096	; 0x1000
   4:	eb000001 	bl	10 <_close_watchdog>
   8:	eb00000f 	bl	4c <main>

0000000c <halt_loop>:
   c:	eafffffe 	b	c <halt_loop>

00000010 <_close_watchdog>:
  10:	e3a00453 	mov	r0, #1392508928	; 0x53000000
  14:	e3a01000 	mov	r1, #0	; 0x0
  18:	e5801000 	str	r1, [r0]
  1c:	e1a0f00e 	mov	pc, lr

00000020 <wait>:
  20:	e24dd004 	sub	sp, sp, #4	; 0x4
  24:	e58d0000 	str	r0, [sp]
  28:	e59d3000 	ldr	r3, [sp]
  2c:	e3530000 	cmp	r3, #0	; 0x0
  30:	0a000003 	beq	44 <wait+0x24>
  34:	e59d3000 	ldr	r3, [sp]
  38:	e2433001 	sub	r3, r3, #1	; 0x1
  3c:	e58d3000 	str	r3, [sp]
  40:	eafffff8 	b	28 <wait+0x8>
  44:	e28dd004 	add	sp, sp, #4	; 0x4
  48:	e1a0f00e 	mov	pc, lr

0000004c <main>:
  4c:	e52de004 	str	lr, [sp, #-4]!
  50:	e24dd004 	sub	sp, sp, #4	; 0x4
  54:	e3a03000 	mov	r3, #0	; 0x0
  58:	e58d3000 	str	r3, [sp]
  5c:	e3a03456 	mov	r3, #1442840576	; 0x56000000
  60:	e2833050 	add	r3, r3, #80	; 0x50
  64:	e3a02c15 	mov	r2, #5376	; 0x1500
  68:	e5832000 	str	r2, [r3]
  6c:	e3a00c75 	mov	r0, #29952	; 0x7500
  70:	e2800030 	add	r0, r0, #48	; 0x30
  74:	ebffffe9 	bl	20 <wait>
  78:	e3a02456 	mov	r2, #1442840576	; 0x56000000
  7c:	e2822054 	add	r2, r2, #84	; 0x54
  80:	e3a01001 	mov	r1, #1	; 0x1
  84:	e59d3000 	ldr	r3, [sp]
  88:	e1a03311 	mov	r3, r1, lsl r3
  8c:	e1e03003 	mvn	r3, r3
  90:	e5823000 	str	r3, [r2]
  94:	e59d3000 	ldr	r3, [sp]
  98:	e2833001 	add	r3, r3, #1	; 0x1
  9c:	e58d3000 	str	r3, [sp]
  a0:	e59d3000 	ldr	r3, [sp]
  a4:	e3530006 	cmp	r3, #6	; 0x6
  a8:	9affffef 	bls	6c <main+0x20>
  ac:	e3a03004 	mov	r3, #4	; 0x4
  b0:	e58d3000 	str	r3, [sp]
  b4:	eaffffec 	b	6c <main+0x20>

000000b8 <watchdog_close>:
  b8:	e24dd004 	sub	sp, sp, #4	; 0x4
  bc:	e3a03453 	mov	r3, #1392508928	; 0x53000000
  c0:	e58d3000 	str	r3, [sp]
  c4:	e59d2000 	ldr	r2, [sp]
  c8:	e3a03000 	mov	r3, #0	; 0x0
  cc:	e5823000 	str	r3, [r2]
  d0:	e28dd004 	add	sp, sp, #4	; 0x4
  d4:	e1a0f00e 	mov	pc, lr